; Function Attrs: mustprogress nofree norecurse nosync nounwind willreturn memory(argmem: write) uwtable
define hidden noundef i32 @mbedtls_ripemd160_starts(ptr noundef writeonly captures(none) initializes((0, 28)) %0) local_unnamed_addr #0 {
  store i32 0, ptr %0, align 4, !tbaa !7
  %2 = getelementptr inbounds nuw i8, ptr %0, i64 4
  store i32 0, ptr %2, align 4, !tbaa !7
  %3 = getelementptr inbounds nuw i8, ptr %0, i64 8
  store i32 1732584193, ptr %3, align 4, !tbaa !7
  %4 = getelementptr inbounds nuw i8, ptr %0, i64 12
  store i32 -271733879, ptr %4, align 4, !tbaa !7
  %5 = getelementptr inbounds nuw i8, ptr %0, i64 16
  store i32 -1732584194, ptr %5, align 4, !tbaa !7
  %6 = getelementptr inbounds nuw i8, ptr %0, i64 20
  store i32 271733878, ptr %6, align 4, !tbaa !7
  %7 = getelementptr inbounds nuw i8, ptr %0, i64 24
  store i32 -1009589776, ptr %7, align 4, !tbaa !7
  ret i32 0
}